target datalayout = "e-m:e-p270:32:32-p271:32:32-p272:64:64-i64:64-i128:128-f80:128-n8:16:32:64-S128"
target triple = "x86_64-pc-linux-gnu"

%"class.cv::BRISK_Impl" = type { %"class.cv::BRISK", i32, i32, float, ptr, i32, ptr, ptr, i32, float, float, ptr, ptr, i32, i32 }
%"class.cv::BRISK" = type { %"class.cv::Feature2D" }
%"class.cv::Feature2D" = type { %"class.cv::Algorithm" }
%"class.cv::Algorithm" = type { ptr }

; Function Attrs: mustprogress nounwind uwtable
define linkonce_odr hidden void @_ZN2cv9Feature2DC2Ev(ptr noundef nonnull align 8 dereferenceable(8) %0, ptr noundef %1) unnamed_addr #1 comdat align 2 {
  %3 = alloca ptr, align 8
  %4 = alloca ptr, align 8
  store ptr %0, ptr %3, align 8
  store ptr %1, ptr %4, align 8
  %5 = load ptr, ptr %3, align 8
  %6 = load ptr, ptr %4, align 8
  %7 = load ptr, ptr %6, align 8
  store ptr %7, ptr %5, align 8
  %8 = getelementptr inbounds ptr, ptr %6, i64 1
  %9 = load ptr, ptr %8, align 8
  %10 = load ptr, ptr %5, align 8
  %11 = getelementptr i8, ptr %10, i64 -80
  %12 = load i64, ptr %11, align 8
  %13 = getelementptr inbounds i8, ptr %5, i64 %12
  store ptr %9, ptr %13, align 8
  ret void
}

; Function Attrs: mustprogress nounwind uwtable
define linkonce_odr hidden void @_ZN2cv5BRISKD2Ev(ptr noundef nonnull align 8 dereferenceable(8) %0, ptr noundef %1) unnamed_addr #1 comdat align 2 {
  %3 = alloca ptr, align 8
  %4 = alloca ptr, align 8
  store ptr %0, ptr %3, align 8
  store ptr %1, ptr %4, align 8
  %5 = load ptr, ptr %3, align 8
  %6 = load ptr, ptr %4, align 8
  %7 = getelementptr inbounds ptr, ptr %6, i64 1
  call void @_ZN2cv9Feature2DD2Ev(ptr noundef nonnull align 8 dereferenceable(8) %5, ptr noundef %7) #8
  ret void
}

; Function Attrs: mustprogress uwtable
define linkonce_odr hidden void @_ZN2cv5BRISKC2Ev(ptr noundef nonnull align 8 dereferenceable(8) %0, ptr noundef %1) unnamed_addr #0 comdat align 2 {
  %3 = alloca ptr, align 8
  %4 = alloca ptr, align 8
  store ptr %0, ptr %3, align 8
  store ptr %1, ptr %4, align 8
  %5 = load ptr, ptr %3, align 8
  %6 = load ptr, ptr %4, align 8
  %7 = getelementptr inbounds ptr, ptr %6, i64 1
  call void @_ZN2cv9Feature2DC2Ev(ptr noundef nonnull align 8 dereferenceable(8) %5, ptr noundef %7)
  %8 = load ptr, ptr %6, align 8
  store ptr %8, ptr %5, align 8
  %9 = getelementptr inbounds ptr, ptr %6, i64 3
  %10 = load ptr, ptr %9, align 8
  %11 = load ptr, ptr %5, align 8
  %12 = getelementptr i8, ptr %11, i64 -80
  %13 = load i64, ptr %12, align 8
  %14 = getelementptr inbounds i8, ptr %5, i64 %13
  store ptr %10, ptr %14, align 8
  ret void
}

; Function Attrs: mustprogress uwtable
define hidden void @_ZN2cv10BRISK_ImplC1EiiRKSt6vectorIfSaIfEERKS1_IiSaIiEEffS7_(ptr noundef nonnull align 8 dereferenceable(96) %0, i32 noundef %1, i32 noundef %2, ptr noundef nonnull align 8 dereferenceable(24) %3, ptr noundef nonnull align 8 dereferenceable(24) %4, float noundef %5, float noundef %6, ptr noundef %7) unnamed_addr #0 align 2 personality ptr @__gxx_personality_v0 {
  %9 = alloca ptr, align 8
  %10 = alloca i32, align 4
  %11 = alloca i32, align 4
  %12 = alloca ptr, align 8
  %13 = alloca ptr, align 8
  %14 = alloca float, align 4
  %15 = alloca float, align 4
  %16 = alloca ptr, align 8
  %17 = alloca ptr, align 8
  %18 = alloca i32, align 4
  store ptr %0, ptr %9, align 8
  store i32 %1, ptr %10, align 4
  store i32 %2, ptr %11, align 4
  store ptr %3, ptr %12, align 8
  store ptr %4, ptr %13, align 8
  store float %5, ptr %14, align 4
  store float %6, ptr %15, align 4
  store ptr %7, ptr %16, align 8
  %19 = load ptr, ptr %9, align 8
  call void @_ZN2cv9AlgorithmC2Ev(ptr noundef nonnull align 8 dereferenceable(8) %19)
  invoke void @_ZN2cv5BRISKC2Ev(ptr noundef nonnull align 8 dereferenceable(8) %19, ptr noundef getelementptr inbounds ([6 x ptr], ptr @_ZTTN2cv10BRISK_ImplE, i64 0, i64 1))
          to label %20 unwind label %30

20:                                               ; preds = %8
  store ptr getelementptr inbounds inrange(-80, 176) ({ [32 x ptr] }, ptr @_ZTVN2cv10BRISK_ImplE, i32 0, i32 0, i32 10), ptr %19, align 8
  store ptr getelementptr inbounds inrange(-80, 176) ({ [32 x ptr] }, ptr @_ZTVN2cv10BRISK_ImplE, i32 0, i32 0, i32 10), ptr %19, align 8
  %21 = load ptr, ptr %12, align 8
  %22 = load ptr, ptr %13, align 8
  %23 = load float, ptr %14, align 4
  %24 = load float, ptr %15, align 4
  invoke void @_ZN2cv10BRISK_Impl14generateKernelERKSt6vectorIfSaIfEERKS1_IiSaIiEEffS9_(ptr noundef nonnull align 8 dereferenceable(96) %19, ptr noundef nonnull align 8 dereferenceable(24) %21, ptr noundef nonnull align 8 dereferenceable(24) %22, float noundef %23, float noundef %24, ptr noundef nonnull align 8 dereferenceable(24) %7)
          to label %25 unwind label %34

25:                                               ; preds = %20
  %26 = load i32, ptr %10, align 4
  %27 = getelementptr inbounds %"class.cv::BRISK_Impl", ptr %19, i32 0, i32 1
  store i32 %26, ptr %27, align 8
  %28 = load i32, ptr %11, align 4
  %29 = getelementptr inbounds %"class.cv::BRISK_Impl", ptr %19, i32 0, i32 2
  store i32 %28, ptr %29, align 4
  ret void

30:                                               ; preds = %8
  %31 = landingpad { ptr, i32 }
          cleanup
  %32 = extractvalue { ptr, i32 } %31, 0
  store ptr %32, ptr %17, align 8
  %33 = extractvalue { ptr, i32 } %31, 1
  store i32 %33, ptr %18, align 4
  br label %38

34:                                               ; preds = %20
  %35 = landingpad { ptr, i32 }
          cleanup
  %36 = extractvalue { ptr, i32 } %35, 0
  store ptr %36, ptr %17, align 8
  %37 = extractvalue { ptr, i32 } %35, 1
  store i32 %37, ptr %18, align 4
  call void @_ZN2cv5BRISKD2Ev(ptr noundef nonnull align 8 dereferenceable(8) %19, ptr noundef getelementptr inbounds ([6 x ptr], ptr @_ZTTN2cv10BRISK_ImplE, i64 0, i64 1)) #8
  br label %38

38:                                               ; preds = %34, %30
  call void @_ZN2cv9AlgorithmD2Ev(ptr noundef nonnull align 8 dereferenceable(8) %19) #8
  br label %39

39:                                               ; preds = %38
  %40 = load ptr, ptr %17, align 8
  %41 = load i32, ptr %18, align 4
  %42 = insertvalue { ptr, i32 } poison, ptr %40, 0
  %43 = insertvalue { ptr, i32 } %42, i32 %41, 1
  resume { ptr, i32 } %43
}