; Function Attrs: mustprogress uwtable
define hidden void @_ZN2cv10BRISK_ImplC1EiiRKSt6vectorIfSaIfEERKS1_IiSaIiEEffS7_(ptr noundef nonnull align 8 dereferenceable(96) %0, i32 noundef %1, i32 noundef %2, ptr nocapture noundef nonnull readonly align 8 dereferenceable(24) %3, ptr nocapture noundef nonnull readonly align 8 dereferenceable(24) %4, float noundef %5, float noundef %6, ptr nocapture noundef readonly %7) unnamed_addr #0 align 2 personality ptr @__gxx_personality_v0 {
  tail call void @_ZN2cv9AlgorithmC2Ev(ptr noundef nonnull align 8 dereferenceable(8) %0)
  store ptr getelementptr inbounds inrange(-80, 176) (i8, ptr @_ZTVN2cv10BRISK_ImplE, i64 80), ptr %0, align 8
  invoke void @_ZN2cv10BRISK_Impl14generateKernelERKSt6vectorIfSaIfEERKS1_IiSaIiEEffS9_(ptr noundef nonnull align 8 dereferenceable(96) %0, ptr noundef nonnull align 8 dereferenceable(24) %3, ptr noundef nonnull align 8 dereferenceable(24) %4, float noundef %5, float noundef %6, ptr noundef nonnull align 8 dereferenceable(24) %7)
          to label %9 unwind label %12

9:                                                ; preds = %8
  %10 = getelementptr inbounds i8, ptr %0, i64 8
  store i32 %1, ptr %10, align 8
  %11 = getelementptr inbounds i8, ptr %0, i64 12
  store i32 %2, ptr %11, align 4
  ret void

12:                                               ; preds = %8
  %13 = landingpad { ptr, i32 }
          cleanup
  tail call void @_ZN2cv9Feature2DD2Ev(ptr noundef nonnull align 8 dereferenceable(8) %0, ptr noundef nonnull getelementptr inbounds (i8, ptr @_ZTTN2cv10BRISK_ImplE, i64 16)) #22
  tail call void @_ZN2cv9AlgorithmD2Ev(ptr noundef nonnull align 8 dereferenceable(8) %0) #22
  resume { ptr, i32 } %13
}